target datalayout = "e-m:e-p270:32:32-p271:32:32-p272:64:64-i64:64-i128:128-f80:128-n8:16:32:64-S128"
target triple = "x86_64-pc-linux-gnu"

%struct.lv_point_t = type { i32, i32 }
%struct.lv_point_precise_t = type { float, float }

; Function Attrs: nounwind uwtable
define <2 x float> @lv_point_to_precise(ptr noundef %0) #4 {
  %2 = alloca %struct.lv_point_precise_t, align 4
  %3 = alloca ptr, align 8
  store ptr %0, ptr %3, align 8, !tbaa !3
  %4 = getelementptr inbounds nuw %struct.lv_point_precise_t, ptr %2, i32 0, i32 0
  %5 = load ptr, ptr %3, align 8, !tbaa !3
  %6 = getelementptr inbounds nuw %struct.lv_point_t, ptr %5, i32 0, i32 0
  %7 = load i32, ptr %6, align 4, !tbaa !20
  %8 = sitofp i32 %7 to float
  store float %8, ptr %4, align 4, !tbaa !29
  %9 = getelementptr inbounds nuw %struct.lv_point_precise_t, ptr %2, i32 0, i32 1
  %10 = load ptr, ptr %3, align 8, !tbaa !3
  %11 = getelementptr inbounds nuw %struct.lv_point_t, ptr %10, i32 0, i32 1
  %12 = load i32, ptr %11, align 4, !tbaa !22
  %13 = sitofp i32 %12 to float
  store float %13, ptr %9, align 4, !tbaa !32
  %14 = load <2 x float>, ptr %2, align 4
  ret <2 x float> %14
}