; Function Attrs: mustprogress nofree norecurse nosync nounwind willreturn memory(argmem: read) uwtable
define <2 x float> @lv_point_to_precise(ptr noundef readonly captures(none) %0) local_unnamed_addr #6 {
  %2 = load i32, ptr %0, align 4, !tbaa !12
  %3 = sitofp i32 %2 to float
  %.sroa.0.0.vec.insert = insertelement <2 x float> poison, float %3, i64 0
  %4 = getelementptr inbounds nuw i8, ptr %0, i64 4
  %5 = load i32, ptr %4, align 4, !tbaa !14
  %6 = sitofp i32 %5 to float
  %.sroa.0.4.vec.insert = insertelement <2 x float> %.sroa.0.0.vec.insert, float %6, i64 1
  ret <2 x float> %.sroa.0.4.vec.insert
}